(iuserInterface
User
p1
(dp2
S'username'
p3
Valpha
p4
sS'timestamp'
p5
F1428141733.1010001
sS'role'
p6
S'ADMIN'
p7
sS'games'
p8
(lp9
sS'password'
p10
S'54fce74ddd33dc3f1ac11d17cd8076a90baf1f5e'
p11
sS'email'
p12
Nsb.