(iuserInterface
User
p1
(dp2
S'username'
p3
Vredevined
p4
sS'timestamp'
p5
F1428141504.974
sS'role'
p6
S'ADMIN'
p7
sS'games'
p8
(lp9
sS'password'
p10
S'd033e22ae348aeb5660fc2140aec35850c4da997'
p11
sS'email'
p12
Vegophobie@gmail.com
p13
sb.