(iuser
User
p1
(dp2
S'username'
p3
Vredevined
p4
sS'timestamp'
p5
F1418743766.400105
sS'password'
p6
S'd033e22ae348aeb5660fc2140aec35850c4da997'
p7
sS'role'
p8
S'ADMIN'
p9
sS'email'
p10
Vegophobie@gmail.com
p11
sb.